; Function Attrs: nounwind uwtable
define hidden void @zif_posix_getpwuid(ptr noundef %0, ptr noundef %1) #0 {
  %3 = alloca i64, align 8
  %4 = getelementptr inbounds i8, ptr %0, i64 44
  %5 = load i32, ptr %4, align 4
  %cond = icmp eq i32 %5, 1
  br i1 %cond, label %6, label %.thread87

6:                                                ; preds = %2
  %7 = getelementptr inbounds i8, ptr %0, i64 80
  %8 = getelementptr inbounds i8, ptr %0, i64 88
  %9 = load i8, ptr %8, align 8
  %10 = icmp eq i8 %9, 4
  br i1 %10, label %.thread77, label %12

.thread77:                                        ; preds = %6
  %11 = load i64, ptr %7, align 8
  store i64 %11, ptr %3, align 8
  br label %.thread95

12:                                               ; preds = %6
  %13 = call zeroext i1 @zend_parse_arg_long_slow(ptr noundef nonnull %7, ptr noundef nonnull %3, i32 noundef 1) #11
  %.fr = freeze i1 %13
  br i1 %.fr, label %..thread95_crit_edge, label %14

..thread95_crit_edge:                             ; preds = %12
  %.pre = load i64, ptr %3, align 8
  br label %.thread95

.thread87:                                        ; preds = %2
  tail call void @zend_wrong_parameters_count_error(i32 noundef 1, i32 noundef 1) #11
  br label %14

14:                                               ; preds = %12, %.thread87
  %.06394 = phi i32 [ 0, %.thread87 ], [ 1, %12 ]
  %.06493 = phi i32 [ 1, %.thread87 ], [ 9, %12 ]
  %.06592 = phi ptr [ null, %.thread87 ], [ %7, %12 ]
  call void @zend_wrong_parameter_error(i32 noundef %.06493, i32 noundef %.06394, ptr noundef null, i32 noundef 0, ptr noundef %.06592) #11
  br label %29

.thread95:                                        ; preds = %..thread95_crit_edge, %.thread77
  %15 = phi i64 [ %.pre, %..thread95_crit_edge ], [ %11, %.thread77 ]
  %16 = trunc i64 %15 to i32
  %17 = call ptr @getpwuid(i32 noundef %16) #11
  %18 = icmp eq ptr %17, null
  br i1 %18, label %19, label %23

19:                                               ; preds = %.thread95
  %20 = tail call ptr @__errno_location() #12
  %21 = load i32, ptr %20, align 4
  store i32 %21, ptr @posix_globals, align 4
  %22 = getelementptr inbounds i8, ptr %1, i64 8
  store i32 2, ptr %22, align 8
  br label %29

23:                                               ; preds = %.thread95
  %24 = call ptr @_zend_new_array_0() #11
  store ptr %24, ptr %1, align 8
  %25 = getelementptr inbounds i8, ptr %1, i64 8
  store i32 775, ptr %25, align 8
  %26 = call i32 @php_posix_passwd_to_array(ptr noundef nonnull %17, ptr noundef nonnull %1), !range !4
  %.not71 = icmp eq i32 %26, 0
  br i1 %.not71, label %27, label %29

27:                                               ; preds = %23
  %28 = load ptr, ptr %1, align 8
  call void @zend_array_destroy(ptr noundef %28) #11
  call void (ptr, i32, ptr, ...) @php_error_docref(ptr noundef null, i32 noundef 2, ptr noundef nonnull @.str.28) #11
  store i32 2, ptr %25, align 8
  br label %29

29:                                               ; preds = %27, %23, %19, %14
  ret void
}